; Function Attrs: nounwind uwtable
define zeroext range(i8 0, 2) i8 @l_List_elem___at_Lean_Elab_Tactic_SolveByElim_parseArgs___spec__3(ptr noundef %0, ptr noundef %1) local_unnamed_addr #0 {
  %3 = ptrtoint ptr %0 to i64
  %4 = and i64 %3, 1
  %.not46 = icmp eq i64 %4, 0
  br label %lean_dec.exit

lean_dec.exit:                                    ; preds = %lean_inc.exit, %2
  %.018 = phi ptr [ %1, %2 ], [ %34, %lean_inc.exit ]
  %5 = ptrtoint ptr %.018 to i64
  %6 = and i64 %5, 1
  %.not.i31 = icmp eq i64 %6, 0
  br i1 %.not.i31, label %10, label %7

7:                                                ; preds = %lean_dec.exit
  %8 = lshr i64 %5, 1
  %9 = trunc i64 %8 to i32
  br label %lean_obj_tag.exit

10:                                               ; preds = %lean_dec.exit
  %11 = getelementptr i8, ptr %.018, i64 4
  %.val.i = load i32, ptr %11, align 4
  %12 = lshr i32 %.val.i, 24
  br label %lean_obj_tag.exit

lean_obj_tag.exit:                                ; preds = %7, %10
  %.0.i = phi i32 [ %9, %7 ], [ %12, %10 ]
  %13 = icmp eq i32 %.0.i, 0
  br i1 %13, label %14, label %22

14:                                               ; preds = %lean_obj_tag.exit
  br i1 %.not46, label %15, label %lean_dec.exit22

15:                                               ; preds = %14
  %16 = load i32, ptr %0, align 4, !tbaa !8
  %17 = icmp sgt i32 %16, 1
  br i1 %17, label %18, label %20, !prof !11

18:                                               ; preds = %15
  %19 = add nsw i32 %16, -1
  store i32 %19, ptr %0, align 4, !tbaa !8
  br label %lean_dec.exit22

20:                                               ; preds = %15
  %.not.i = icmp eq i32 %16, 0
  br i1 %.not.i, label %lean_dec.exit22, label %21

21:                                               ; preds = %20
  tail call void @lean_dec_ref_cold(ptr noundef nonnull %0) #4
  br label %lean_dec.exit22

22:                                               ; preds = %lean_obj_tag.exit
  %23 = getelementptr inbounds nuw i8, ptr %.018, i64 8
  %24 = load ptr, ptr %23, align 8, !tbaa !4
  %25 = ptrtoint ptr %24 to i64
  %26 = and i64 %25, 1
  %.not = icmp eq i64 %26, 0
  br i1 %.not, label %27, label %lean_inc.exit24

27:                                               ; preds = %22
  %.val.i32 = load i32, ptr %24, align 4, !tbaa !8
  %28 = icmp sgt i32 %.val.i32, 0
  br i1 %28, label %29, label %31, !prof !11

29:                                               ; preds = %27
  %30 = add nuw i32 %.val.i32, 1
  store i32 %30, ptr %24, align 4, !tbaa !8
  br label %lean_inc.exit24

31:                                               ; preds = %27
  %.not.i33 = icmp eq i32 %.val.i32, 0
  br i1 %.not.i33, label %lean_inc.exit24, label %32

32:                                               ; preds = %31
  tail call void @lean_inc_ref_cold(ptr noundef nonnull %24) #4
  br label %lean_inc.exit24

lean_inc.exit24:                                  ; preds = %32, %31, %29, %22
  %33 = getelementptr inbounds nuw i8, ptr %.018, i64 16
  %34 = load ptr, ptr %33, align 8, !tbaa !4
  %35 = ptrtoint ptr %34 to i64
  %36 = and i64 %35, 1
  %.not44 = icmp eq i64 %36, 0
  br i1 %.not44, label %37, label %lean_inc.exit23

37:                                               ; preds = %lean_inc.exit24
  %.val.i34 = load i32, ptr %34, align 4, !tbaa !8
  %38 = icmp sgt i32 %.val.i34, 0
  br i1 %38, label %39, label %41, !prof !11

39:                                               ; preds = %37
  %40 = add nuw i32 %.val.i34, 1
  store i32 %40, ptr %34, align 4, !tbaa !8
  br label %lean_inc.exit23

41:                                               ; preds = %37
  %.not.i35 = icmp eq i32 %.val.i34, 0
  br i1 %.not.i35, label %lean_inc.exit23, label %42

42:                                               ; preds = %41
  tail call void @lean_inc_ref_cold(ptr noundef nonnull %34) #4
  br label %lean_inc.exit23

lean_inc.exit23:                                  ; preds = %42, %41, %39, %lean_inc.exit24
  br i1 %.not.i31, label %43, label %lean_dec.exit21

43:                                               ; preds = %lean_inc.exit23
  %44 = load i32, ptr %.018, align 4, !tbaa !8
  %45 = icmp sgt i32 %44, 1
  br i1 %45, label %46, label %48, !prof !11

46:                                               ; preds = %43
  %47 = add nsw i32 %44, -1
  store i32 %47, ptr %.018, align 4, !tbaa !8
  br label %lean_dec.exit21

48:                                               ; preds = %43
  %.not.i25 = icmp eq i32 %44, 0
  br i1 %.not.i25, label %lean_dec.exit21, label %49

49:                                               ; preds = %48
  tail call void @lean_dec_ref_cold(ptr noundef nonnull %.018) #4
  br label %lean_dec.exit21

lean_dec.exit21:                                  ; preds = %49, %48, %46, %lean_inc.exit23
  br i1 %.not46, label %50, label %lean_inc.exit

50:                                               ; preds = %lean_dec.exit21
  %.val.i37 = load i32, ptr %0, align 4, !tbaa !8
  %51 = icmp sgt i32 %.val.i37, 0
  br i1 %51, label %52, label %54, !prof !11

52:                                               ; preds = %50
  %53 = add nuw i32 %.val.i37, 1
  store i32 %53, ptr %0, align 4, !tbaa !8
  br label %lean_inc.exit

54:                                               ; preds = %50
  %.not.i38 = icmp eq i32 %.val.i37, 0
  br i1 %.not.i38, label %lean_inc.exit, label %55

55:                                               ; preds = %54
  tail call void @lean_inc_ref_cold(ptr noundef nonnull %0) #4
  br label %lean_inc.exit

lean_inc.exit:                                    ; preds = %55, %54, %52, %lean_dec.exit21
  %56 = tail call zeroext i8 @l_Option_beqOption____x40_Init_Data_Option_Basic___hyg_160____at_Lean_Elab_Tactic_SolveByElim_parseArgs___spec__4(ptr noundef %0, ptr noundef %24)
  %57 = icmp eq i8 %56, 0
  br i1 %57, label %lean_dec.exit, label %58

58:                                               ; preds = %lean_inc.exit
  br i1 %.not44, label %59, label %lean_dec.exit20

59:                                               ; preds = %58
  %60 = load i32, ptr %34, align 4, !tbaa !8
  %61 = icmp sgt i32 %60, 1
  br i1 %61, label %62, label %64, !prof !11

62:                                               ; preds = %59
  %63 = add nsw i32 %60, -1
  store i32 %63, ptr %34, align 4, !tbaa !8
  br label %lean_dec.exit20

64:                                               ; preds = %59
  %.not.i27 = icmp eq i32 %60, 0
  br i1 %.not.i27, label %lean_dec.exit20, label %65

65:                                               ; preds = %64
  tail call void @lean_dec_ref_cold(ptr noundef nonnull %34) #4
  br label %lean_dec.exit20

lean_dec.exit20:                                  ; preds = %65, %64, %62, %58
  br i1 %.not46, label %66, label %lean_dec.exit22

66:                                               ; preds = %lean_dec.exit20
  %67 = load i32, ptr %0, align 4, !tbaa !8
  %68 = icmp sgt i32 %67, 1
  br i1 %68, label %69, label %71, !prof !11

69:                                               ; preds = %66
  %70 = add nsw i32 %67, -1
  store i32 %70, ptr %0, align 4, !tbaa !8
  br label %lean_dec.exit22

71:                                               ; preds = %66
  %.not.i29 = icmp eq i32 %67, 0
  br i1 %.not.i29, label %lean_dec.exit22, label %72

72:                                               ; preds = %71
  tail call void @lean_dec_ref_cold(ptr noundef nonnull %0) #4
  br label %lean_dec.exit22

lean_dec.exit22:                                  ; preds = %lean_dec.exit20, %69, %71, %72, %14, %18, %20, %21
  %.1 = phi i8 [ 0, %21 ], [ 0, %20 ], [ 0, %18 ], [ 0, %14 ], [ 1, %72 ], [ 1, %71 ], [ 1, %69 ], [ 1, %lean_dec.exit20 ]
  ret i8 %.1
}